target datalayout = "e-m:e-p270:32:32-p271:32:32-p272:64:64-i64:64-i128:128-f80:128-n8:16:32:64-S128"
target triple = "x86_64-pc-linux-gnu"

%"class.icu_77::UVector64" = type { %"class.icu_77::UObject", i32, i32, i32, ptr }
%"class.icu_77::UObject" = type { ptr }

@_ZTVN6icu_779UVector64E = unnamed_addr constant { [5 x ptr] } { [5 x ptr] [ptr null, ptr @_ZTIN6icu_779UVector64E, ptr @_ZN6icu_779UVector64D1Ev, ptr @_ZN6icu_779UVector64D0Ev, ptr @_ZNK6icu_779UVector6417getDynamicClassIDEv] }, align 8
@_ZTVN6icu_777UObjectE = available_externally unnamed_addr constant { [5 x ptr] } { [5 x ptr] [ptr null, ptr @_ZTIN6icu_777UObjectE, ptr @_ZN6icu_777UObjectD1Ev, ptr @_ZN6icu_777UObjectD0Ev, ptr @_ZNK6icu_777UObject17getDynamicClassIDEv] }, align 8

; Function Attrs: mustprogress uwtable
define void @_ZN6icu_779UVector645_initEiR10UErrorCode(ptr noundef nonnull align 8 dereferenceable(32) %0, i32 noundef %1, ptr noundef nonnull align 4 dereferenceable(4) %2) #1 align 2 {
  %4 = alloca ptr, align 8
  %5 = alloca i32, align 4
  %6 = alloca ptr, align 8
  store ptr %0, ptr %4, align 8, !tbaa !3
  store i32 %1, ptr %5, align 4, !tbaa !21
  store ptr %2, ptr %6, align 8, !tbaa !8
  %7 = load ptr, ptr %4, align 8
  %8 = load i32, ptr %5, align 4, !tbaa !21
  %9 = icmp slt i32 %8, 1
  br i1 %9, label %10, label %11

10:                                               ; preds = %3
  store i32 8, ptr %5, align 4, !tbaa !21
  br label %11

11:                                               ; preds = %10, %3
  %12 = getelementptr inbounds nuw %"class.icu_77::UVector64", ptr %7, i32 0, i32 3
  %13 = load i32, ptr %12, align 8, !tbaa !17
  %14 = icmp sgt i32 %13, 0
  br i1 %14, label %15, label %23

15:                                               ; preds = %11
  %16 = getelementptr inbounds nuw %"class.icu_77::UVector64", ptr %7, i32 0, i32 3
  %17 = load i32, ptr %16, align 8, !tbaa !17
  %18 = load i32, ptr %5, align 4, !tbaa !21
  %19 = icmp slt i32 %17, %18
  br i1 %19, label %20, label %23

20:                                               ; preds = %15
  %21 = getelementptr inbounds nuw %"class.icu_77::UVector64", ptr %7, i32 0, i32 3
  %22 = load i32, ptr %21, align 8, !tbaa !17
  store i32 %22, ptr %5, align 4, !tbaa !21
  br label %23

23:                                               ; preds = %20, %15, %11
  %24 = load i32, ptr %5, align 4, !tbaa !21
  %25 = icmp sgt i32 %24, 268435455
  br i1 %25, label %26, label %30

26:                                               ; preds = %23
  %27 = getelementptr inbounds nuw %"class.icu_77::UVector64", ptr %7, i32 0, i32 3
  %28 = load i32, ptr %27, align 8, !tbaa !17
  %29 = call i32 @uprv_min_77(i32 noundef 8, i32 noundef %28)
  store i32 %29, ptr %5, align 4, !tbaa !21
  br label %30

30:                                               ; preds = %26, %23
  %31 = load i32, ptr %5, align 4, !tbaa !21
  %32 = sext i32 %31 to i64
  %33 = mul i64 8, %32
  %34 = call noalias ptr @uprv_malloc_77(i64 noundef %33) #11
  %35 = getelementptr inbounds nuw %"class.icu_77::UVector64", ptr %7, i32 0, i32 4
  store ptr %34, ptr %35, align 8, !tbaa !18
  %36 = getelementptr inbounds nuw %"class.icu_77::UVector64", ptr %7, i32 0, i32 4
  %37 = load ptr, ptr %36, align 8, !tbaa !18
  %38 = icmp eq ptr %37, null
  br i1 %38, label %39, label %41

39:                                               ; preds = %30
  %40 = load ptr, ptr %6, align 8, !tbaa !8
  store i32 7, ptr %40, align 4, !tbaa !22
  br label %44

41:                                               ; preds = %30
  %42 = load i32, ptr %5, align 4, !tbaa !21
  %43 = getelementptr inbounds nuw %"class.icu_77::UVector64", ptr %7, i32 0, i32 2
  store i32 %42, ptr %43, align 4, !tbaa !16
  br label %44

44:                                               ; preds = %41, %39
  ret void
}

; Function Attrs: inlinehint mustprogress nounwind uwtable
define linkonce_odr void @_ZN6icu_777UObjectC2Ev(ptr noundef nonnull align 8 dereferenceable(8) %0) unnamed_addr #2 comdat align 2 {
  %2 = alloca ptr, align 8
  store ptr %0, ptr %2, align 8, !tbaa !19
  %3 = load ptr, ptr %2, align 8
  store ptr getelementptr inbounds inrange(-16, 24) ({ [5 x ptr] }, ptr @_ZTVN6icu_777UObjectE, i32 0, i32 0, i32 2), ptr %3, align 8, !tbaa !9
  ret void
}

; Function Attrs: mustprogress uwtable
define void @_ZN6icu_779UVector64C2EiR10UErrorCode(ptr noundef nonnull align 8 dereferenceable(32) %0, i32 noundef %1, ptr noundef nonnull align 4 dereferenceable(4) %2) unnamed_addr #1 align 2 personality ptr @__gxx_personality_v0 {
  %4 = alloca ptr, align 8
  %5 = alloca i32, align 4
  %6 = alloca ptr, align 8
  %7 = alloca ptr, align 8
  %8 = alloca i32, align 4
  store ptr %0, ptr %4, align 8, !tbaa !3
  store i32 %1, ptr %5, align 4, !tbaa !21
  store ptr %2, ptr %6, align 8, !tbaa !8
  %9 = load ptr, ptr %4, align 8
  call void @_ZN6icu_777UObjectC2Ev(ptr noundef nonnull align 8 dereferenceable(8) %9) #10
  store ptr getelementptr inbounds inrange(-16, 24) ({ [5 x ptr] }, ptr @_ZTVN6icu_779UVector64E, i32 0, i32 0, i32 2), ptr %9, align 8, !tbaa !9
  %10 = getelementptr inbounds nuw %"class.icu_77::UVector64", ptr %9, i32 0, i32 1
  store i32 0, ptr %10, align 8, !tbaa !11
  %11 = getelementptr inbounds nuw %"class.icu_77::UVector64", ptr %9, i32 0, i32 2
  store i32 0, ptr %11, align 4, !tbaa !16
  %12 = getelementptr inbounds nuw %"class.icu_77::UVector64", ptr %9, i32 0, i32 3
  store i32 0, ptr %12, align 8, !tbaa !17
  %13 = getelementptr inbounds nuw %"class.icu_77::UVector64", ptr %9, i32 0, i32 4
  store ptr null, ptr %13, align 8, !tbaa !18
  %14 = load i32, ptr %5, align 4, !tbaa !21
  %15 = load ptr, ptr %6, align 8, !tbaa !8
  invoke void @_ZN6icu_779UVector645_initEiR10UErrorCode(ptr noundef nonnull align 8 dereferenceable(32) %9, i32 noundef %14, ptr noundef nonnull align 4 dereferenceable(4) %15)
          to label %16 unwind label %17

16:                                               ; preds = %3
  ret void

17:                                               ; preds = %3
  %18 = landingpad { ptr, i32 }
          cleanup
  %19 = extractvalue { ptr, i32 } %18, 0
  store ptr %19, ptr %7, align 8
  %20 = extractvalue { ptr, i32 } %18, 1
  store i32 %20, ptr %8, align 4
  call void @_ZN6icu_777UObjectD2Ev(ptr noundef nonnull align 8 dereferenceable(8) %9) #10
  br label %21

21:                                               ; preds = %17
  %22 = load ptr, ptr %7, align 8
  %23 = load i32, ptr %8, align 4
  %24 = insertvalue { ptr, i32 } poison, ptr %22, 0
  %25 = insertvalue { ptr, i32 } %24, i32 %23, 1
  resume { ptr, i32 } %25
}