; Function Attrs: mustprogress uwtable
define void @_ZN6icu_779UVector64C2EiR10UErrorCode(ptr noundef nonnull align 8 dereferenceable(32) initializes((0, 20), (24, 32)) %0, i32 noundef %1, ptr noundef nonnull writeonly align 4 captures(none) dereferenceable(4) %2) unnamed_addr #1 align 2 personality ptr @__gxx_personality_v0 {
  store ptr getelementptr inbounds nuw inrange(-16, 24) (i8, ptr @_ZTVN6icu_779UVector64E, i64 16), ptr %0, align 8, !tbaa !3
  %4 = getelementptr inbounds nuw i8, ptr %0, i64 8
  store i32 0, ptr %4, align 8, !tbaa !6
  %5 = getelementptr inbounds nuw i8, ptr %0, i64 12
  store i32 0, ptr %5, align 4, !tbaa !13
  %6 = getelementptr inbounds nuw i8, ptr %0, i64 16
  store i32 0, ptr %6, align 8, !tbaa !14
  %7 = getelementptr inbounds nuw i8, ptr %0, i64 24
  store ptr null, ptr %7, align 8, !tbaa !15
  %8 = icmp slt i32 %1, 1
  %spec.store.select.i = select i1 %8, i32 8, i32 %1
  %9 = icmp samesign ugt i32 %spec.store.select.i, 268435455
  br i1 %9, label %10, label %.noexc

10:                                               ; preds = %3
  %11 = invoke i32 @uprv_min_77(i32 noundef 8, i32 noundef 0)
          to label %.noexc unwind label %18

.noexc:                                           ; preds = %10, %3
  %.1.i = phi i32 [ %spec.store.select.i, %3 ], [ %11, %10 ]
  %12 = sext i32 %.1.i to i64
  %13 = shl nsw i64 %12, 3
  %14 = invoke noalias ptr @uprv_malloc_77(i64 noundef %13) #14
          to label %.noexc4 unwind label %18

.noexc4:                                          ; preds = %.noexc
  store ptr %14, ptr %7, align 8, !tbaa !15
  %15 = icmp eq ptr %14, null
  br i1 %15, label %16, label %17

16:                                               ; preds = %.noexc4
  store i32 7, ptr %2, align 4, !tbaa !16
  br label %_ZN6icu_779UVector645_initEiR10UErrorCode.exit

17:                                               ; preds = %.noexc4
  store i32 %.1.i, ptr %5, align 4, !tbaa !13
  br label %_ZN6icu_779UVector645_initEiR10UErrorCode.exit

_ZN6icu_779UVector645_initEiR10UErrorCode.exit:   ; preds = %17, %16
  ret void

18:                                               ; preds = %.noexc, %10
  %19 = landingpad { ptr, i32 }
          cleanup
  tail call void @_ZN6icu_777UObjectD2Ev(ptr noundef nonnull align 8 dereferenceable(8) %0) #15
  resume { ptr, i32 } %19
}